target datalayout = "e-m:e-p270:32:32-p271:32:32-p272:64:64-i64:64-i128:128-f80:128-n8:16:32:64-S128"
target triple = "x86_64-pc-linux-gnu"

%struct._cwd_state = type { ptr, i64 }
%struct._virtual_cwd_globals = type { %struct._cwd_state, i64, i64, i64, [1024 x ptr] }

@cwd_globals = hidden global %struct._virtual_cwd_globals zeroinitializer, align 8

; Function Attrs: nounwind uwtable
define dso_local i32 @virtual_rmdir(ptr noundef %0) #0 {
  %2 = alloca i32, align 4
  %3 = alloca ptr, align 8
  %4 = alloca %struct._cwd_state, align 8
  %5 = alloca i32, align 4
  %6 = alloca i32, align 4
  store ptr %0, ptr %3, align 8, !tbaa !12
  call void @llvm.lifetime.start.p0(i64 16, ptr %4) #16
  call void @llvm.lifetime.start.p0(i64 4, ptr %5) #16
  %7 = load i64, ptr getelementptr inbounds nuw (%struct._cwd_state, ptr @cwd_globals, i32 0, i32 1), align 8, !tbaa !16
  %8 = getelementptr inbounds nuw %struct._cwd_state, ptr %4, i32 0, i32 1
  store i64 %7, ptr %8, align 8, !tbaa !13
  %9 = load i64, ptr getelementptr inbounds nuw (%struct._cwd_state, ptr @cwd_globals, i32 0, i32 1), align 8, !tbaa !16
  %10 = add i64 %9, 1
  %11 = call i1 @llvm.is.constant.i64(i64 %10)
  br i1 %11, label %12, label %266

12:                                               ; preds = %1
  %13 = load i64, ptr getelementptr inbounds nuw (%struct._cwd_state, ptr @cwd_globals, i32 0, i32 1), align 8, !tbaa !16
  %14 = add i64 %13, 1
  %15 = icmp ule i64 %14, 8
  br i1 %15, label %16, label %18

16:                                               ; preds = %12
  %17 = call noalias ptr @_emalloc_8()
  br label %264

18:                                               ; preds = %12
  %19 = load i64, ptr getelementptr inbounds nuw (%struct._cwd_state, ptr @cwd_globals, i32 0, i32 1), align 8, !tbaa !16
  %20 = add i64 %19, 1
  %21 = icmp ule i64 %20, 16
  br i1 %21, label %22, label %24

22:                                               ; preds = %18
  %23 = call noalias ptr @_emalloc_16()
  br label %262

24:                                               ; preds = %18
  %25 = load i64, ptr getelementptr inbounds nuw (%struct._cwd_state, ptr @cwd_globals, i32 0, i32 1), align 8, !tbaa !16
  %26 = add i64 %25, 1
  %27 = icmp ule i64 %26, 24
  br i1 %27, label %28, label %30

28:                                               ; preds = %24
  %29 = call noalias ptr @_emalloc_24()
  br label %260

30:                                               ; preds = %24
  %31 = load i64, ptr getelementptr inbounds nuw (%struct._cwd_state, ptr @cwd_globals, i32 0, i32 1), align 8, !tbaa !16
  %32 = add i64 %31, 1
  %33 = icmp ule i64 %32, 32
  br i1 %33, label %34, label %36

34:                                               ; preds = %30
  %35 = call noalias ptr @_emalloc_32()
  br label %258

36:                                               ; preds = %30
  %37 = load i64, ptr getelementptr inbounds nuw (%struct._cwd_state, ptr @cwd_globals, i32 0, i32 1), align 8, !tbaa !16
  %38 = add i64 %37, 1
  %39 = icmp ule i64 %38, 40
  br i1 %39, label %40, label %42

40:                                               ; preds = %36
  %41 = call noalias ptr @_emalloc_40()
  br label %256

42:                                               ; preds = %36
  %43 = load i64, ptr getelementptr inbounds nuw (%struct._cwd_state, ptr @cwd_globals, i32 0, i32 1), align 8, !tbaa !16
  %44 = add i64 %43, 1
  %45 = icmp ule i64 %44, 48
  br i1 %45, label %46, label %48

46:                                               ; preds = %42
  %47 = call noalias ptr @_emalloc_48()
  br label %254

48:                                               ; preds = %42
  %49 = load i64, ptr getelementptr inbounds nuw (%struct._cwd_state, ptr @cwd_globals, i32 0, i32 1), align 8, !tbaa !16
  %50 = add i64 %49, 1
  %51 = icmp ule i64 %50, 56
  br i1 %51, label %52, label %54

52:                                               ; preds = %48
  %53 = call noalias ptr @_emalloc_56()
  br label %252

54:                                               ; preds = %48
  %55 = load i64, ptr getelementptr inbounds nuw (%struct._cwd_state, ptr @cwd_globals, i32 0, i32 1), align 8, !tbaa !16
  %56 = add i64 %55, 1
  %57 = icmp ule i64 %56, 64
  br i1 %57, label %58, label %60

58:                                               ; preds = %54
  %59 = call noalias ptr @_emalloc_64()
  br label %250

60:                                               ; preds = %54
  %61 = load i64, ptr getelementptr inbounds nuw (%struct._cwd_state, ptr @cwd_globals, i32 0, i32 1), align 8, !tbaa !16
  %62 = add i64 %61, 1
  %63 = icmp ule i64 %62, 80
  br i1 %63, label %64, label %66

64:                                               ; preds = %60
  %65 = call noalias ptr @_emalloc_80()
  br label %248

66:                                               ; preds = %60
  %67 = load i64, ptr getelementptr inbounds nuw (%struct._cwd_state, ptr @cwd_globals, i32 0, i32 1), align 8, !tbaa !16
  %68 = add i64 %67, 1
  %69 = icmp ule i64 %68, 96
  br i1 %69, label %70, label %72

70:                                               ; preds = %66
  %71 = call noalias ptr @_emalloc_96()
  br label %246

72:                                               ; preds = %66
  %73 = load i64, ptr getelementptr inbounds nuw (%struct._cwd_state, ptr @cwd_globals, i32 0, i32 1), align 8, !tbaa !16
  %74 = add i64 %73, 1
  %75 = icmp ule i64 %74, 112
  br i1 %75, label %76, label %78

76:                                               ; preds = %72
  %77 = call noalias ptr @_emalloc_112()
  br label %244

78:                                               ; preds = %72
  %79 = load i64, ptr getelementptr inbounds nuw (%struct._cwd_state, ptr @cwd_globals, i32 0, i32 1), align 8, !tbaa !16
  %80 = add i64 %79, 1
  %81 = icmp ule i64 %80, 128
  br i1 %81, label %82, label %84

82:                                               ; preds = %78
  %83 = call noalias ptr @_emalloc_128()
  br label %242

84:                                               ; preds = %78
  %85 = load i64, ptr getelementptr inbounds nuw (%struct._cwd_state, ptr @cwd_globals, i32 0, i32 1), align 8, !tbaa !16
  %86 = add i64 %85, 1
  %87 = icmp ule i64 %86, 160
  br i1 %87, label %88, label %90

88:                                               ; preds = %84
  %89 = call noalias ptr @_emalloc_160()
  br label %240

90:                                               ; preds = %84
  %91 = load i64, ptr getelementptr inbounds nuw (%struct._cwd_state, ptr @cwd_globals, i32 0, i32 1), align 8, !tbaa !16
  %92 = add i64 %91, 1
  %93 = icmp ule i64 %92, 192
  br i1 %93, label %94, label %96

94:                                               ; preds = %90
  %95 = call noalias ptr @_emalloc_192()
  br label %238

96:                                               ; preds = %90
  %97 = load i64, ptr getelementptr inbounds nuw (%struct._cwd_state, ptr @cwd_globals, i32 0, i32 1), align 8, !tbaa !16
  %98 = add i64 %97, 1
  %99 = icmp ule i64 %98, 224
  br i1 %99, label %100, label %102

100:                                              ; preds = %96
  %101 = call noalias ptr @_emalloc_224()
  br label %236

102:                                              ; preds = %96
  %103 = load i64, ptr getelementptr inbounds nuw (%struct._cwd_state, ptr @cwd_globals, i32 0, i32 1), align 8, !tbaa !16
  %104 = add i64 %103, 1
  %105 = icmp ule i64 %104, 256
  br i1 %105, label %106, label %108

106:                                              ; preds = %102
  %107 = call noalias ptr @_emalloc_256()
  br label %234

108:                                              ; preds = %102
  %109 = load i64, ptr getelementptr inbounds nuw (%struct._cwd_state, ptr @cwd_globals, i32 0, i32 1), align 8, !tbaa !16
  %110 = add i64 %109, 1
  %111 = icmp ule i64 %110, 320
  br i1 %111, label %112, label %114

112:                                              ; preds = %108
  %113 = call noalias ptr @_emalloc_320()
  br label %232

114:                                              ; preds = %108
  %115 = load i64, ptr getelementptr inbounds nuw (%struct._cwd_state, ptr @cwd_globals, i32 0, i32 1), align 8, !tbaa !16
  %116 = add i64 %115, 1
  %117 = icmp ule i64 %116, 384
  br i1 %117, label %118, label %120

118:                                              ; preds = %114
  %119 = call noalias ptr @_emalloc_384()
  br label %230

120:                                              ; preds = %114
  %121 = load i64, ptr getelementptr inbounds nuw (%struct._cwd_state, ptr @cwd_globals, i32 0, i32 1), align 8, !tbaa !16
  %122 = add i64 %121, 1
  %123 = icmp ule i64 %122, 448
  br i1 %123, label %124, label %126

124:                                              ; preds = %120
  %125 = call noalias ptr @_emalloc_448()
  br label %228

126:                                              ; preds = %120
  %127 = load i64, ptr getelementptr inbounds nuw (%struct._cwd_state, ptr @cwd_globals, i32 0, i32 1), align 8, !tbaa !16
  %128 = add i64 %127, 1
  %129 = icmp ule i64 %128, 512
  br i1 %129, label %130, label %132

130:                                              ; preds = %126
  %131 = call noalias ptr @_emalloc_512()
  br label %226

132:                                              ; preds = %126
  %133 = load i64, ptr getelementptr inbounds nuw (%struct._cwd_state, ptr @cwd_globals, i32 0, i32 1), align 8, !tbaa !16
  %134 = add i64 %133, 1
  %135 = icmp ule i64 %134, 640
  br i1 %135, label %136, label %138

136:                                              ; preds = %132
  %137 = call noalias ptr @_emalloc_640()
  br label %224

138:                                              ; preds = %132
  %139 = load i64, ptr getelementptr inbounds nuw (%struct._cwd_state, ptr @cwd_globals, i32 0, i32 1), align 8, !tbaa !16
  %140 = add i64 %139, 1
  %141 = icmp ule i64 %140, 768
  br i1 %141, label %142, label %144

142:                                              ; preds = %138
  %143 = call noalias ptr @_emalloc_768()
  br label %222

144:                                              ; preds = %138
  %145 = load i64, ptr getelementptr inbounds nuw (%struct._cwd_state, ptr @cwd_globals, i32 0, i32 1), align 8, !tbaa !16
  %146 = add i64 %145, 1
  %147 = icmp ule i64 %146, 896
  br i1 %147, label %148, label %150

148:                                              ; preds = %144
  %149 = call noalias ptr @_emalloc_896()
  br label %220

150:                                              ; preds = %144
  %151 = load i64, ptr getelementptr inbounds nuw (%struct._cwd_state, ptr @cwd_globals, i32 0, i32 1), align 8, !tbaa !16
  %152 = add i64 %151, 1
  %153 = icmp ule i64 %152, 1024
  br i1 %153, label %154, label %156

154:                                              ; preds = %150
  %155 = call noalias ptr @_emalloc_1024()
  br label %218

156:                                              ; preds = %150
  %157 = load i64, ptr getelementptr inbounds nuw (%struct._cwd_state, ptr @cwd_globals, i32 0, i32 1), align 8, !tbaa !16
  %158 = add i64 %157, 1
  %159 = icmp ule i64 %158, 1280
  br i1 %159, label %160, label %162

160:                                              ; preds = %156
  %161 = call noalias ptr @_emalloc_1280()
  br label %216

162:                                              ; preds = %156
  %163 = load i64, ptr getelementptr inbounds nuw (%struct._cwd_state, ptr @cwd_globals, i32 0, i32 1), align 8, !tbaa !16
  %164 = add i64 %163, 1
  %165 = icmp ule i64 %164, 1536
  br i1 %165, label %166, label %168

166:                                              ; preds = %162
  %167 = call noalias ptr @_emalloc_1536()
  br label %214

168:                                              ; preds = %162
  %169 = load i64, ptr getelementptr inbounds nuw (%struct._cwd_state, ptr @cwd_globals, i32 0, i32 1), align 8, !tbaa !16
  %170 = add i64 %169, 1
  %171 = icmp ule i64 %170, 1792
  br i1 %171, label %172, label %174

172:                                              ; preds = %168
  %173 = call noalias ptr @_emalloc_1792()
  br label %212

174:                                              ; preds = %168
  %175 = load i64, ptr getelementptr inbounds nuw (%struct._cwd_state, ptr @cwd_globals, i32 0, i32 1), align 8, !tbaa !16
  %176 = add i64 %175, 1
  %177 = icmp ule i64 %176, 2048
  br i1 %177, label %178, label %180

178:                                              ; preds = %174
  %179 = call noalias ptr @_emalloc_2048()
  br label %210

180:                                              ; preds = %174
  %181 = load i64, ptr getelementptr inbounds nuw (%struct._cwd_state, ptr @cwd_globals, i32 0, i32 1), align 8, !tbaa !16
  %182 = add i64 %181, 1
  %183 = icmp ule i64 %182, 2560
  br i1 %183, label %184, label %186

184:                                              ; preds = %180
  %185 = call noalias ptr @_emalloc_2560()
  br label %208

186:                                              ; preds = %180
  %187 = load i64, ptr getelementptr inbounds nuw (%struct._cwd_state, ptr @cwd_globals, i32 0, i32 1), align 8, !tbaa !16
  %188 = add i64 %187, 1
  %189 = icmp ule i64 %188, 3072
  br i1 %189, label %190, label %192

190:                                              ; preds = %186
  %191 = call noalias ptr @_emalloc_3072()
  br label %206

192:                                              ; preds = %186
  %193 = load i64, ptr getelementptr inbounds nuw (%struct._cwd_state, ptr @cwd_globals, i32 0, i32 1), align 8, !tbaa !16
  %194 = add i64 %193, 1
  %195 = icmp ule i64 %194, 2093056
  br i1 %195, label %196, label %200

196:                                              ; preds = %192
  %197 = load i64, ptr getelementptr inbounds nuw (%struct._cwd_state, ptr @cwd_globals, i32 0, i32 1), align 8, !tbaa !16
  %198 = add i64 %197, 1
  %199 = call noalias ptr @_emalloc_large(i64 noundef %198) #18
  br label %204

200:                                              ; preds = %192
  %201 = load i64, ptr getelementptr inbounds nuw (%struct._cwd_state, ptr @cwd_globals, i32 0, i32 1), align 8, !tbaa !16
  %202 = add i64 %201, 1
  %203 = call noalias ptr @_emalloc_huge(i64 noundef %202) #18
  br label %204

204:                                              ; preds = %200, %196
  %205 = phi ptr [ %199, %196 ], [ %203, %200 ]
  br label %206

206:                                              ; preds = %204, %190
  %207 = phi ptr [ %191, %190 ], [ %205, %204 ]
  br label %208

208:                                              ; preds = %206, %184
  %209 = phi ptr [ %185, %184 ], [ %207, %206 ]
  br label %210

210:                                              ; preds = %208, %178
  %211 = phi ptr [ %179, %178 ], [ %209, %208 ]
  br label %212

212:                                              ; preds = %210, %172
  %213 = phi ptr [ %173, %172 ], [ %211, %210 ]
  br label %214

214:                                              ; preds = %212, %166
  %215 = phi ptr [ %167, %166 ], [ %213, %212 ]
  br label %216

216:                                              ; preds = %214, %160
  %217 = phi ptr [ %161, %160 ], [ %215, %214 ]
  br label %218

218:                                              ; preds = %216, %154
  %219 = phi ptr [ %155, %154 ], [ %217, %216 ]
  br label %220

220:                                              ; preds = %218, %148
  %221 = phi ptr [ %149, %148 ], [ %219, %218 ]
  br label %222

222:                                              ; preds = %220, %142
  %223 = phi ptr [ %143, %142 ], [ %221, %220 ]
  br label %224

224:                                              ; preds = %222, %136
  %225 = phi ptr [ %137, %136 ], [ %223, %222 ]
  br label %226

226:                                              ; preds = %224, %130
  %227 = phi ptr [ %131, %130 ], [ %225, %224 ]
  br label %228

228:                                              ; preds = %226, %124
  %229 = phi ptr [ %125, %124 ], [ %227, %226 ]
  br label %230

230:                                              ; preds = %228, %118
  %231 = phi ptr [ %119, %118 ], [ %229, %228 ]
  br label %232

232:                                              ; preds = %230, %112
  %233 = phi ptr [ %113, %112 ], [ %231, %230 ]
  br label %234

234:                                              ; preds = %232, %106
  %235 = phi ptr [ %107, %106 ], [ %233, %232 ]
  br label %236

236:                                              ; preds = %234, %100
  %237 = phi ptr [ %101, %100 ], [ %235, %234 ]
  br label %238

238:                                              ; preds = %236, %94
  %239 = phi ptr [ %95, %94 ], [ %237, %236 ]
  br label %240

240:                                              ; preds = %238, %88
  %241 = phi ptr [ %89, %88 ], [ %239, %238 ]
  br label %242

242:                                              ; preds = %240, %82
  %243 = phi ptr [ %83, %82 ], [ %241, %240 ]
  br label %244

244:                                              ; preds = %242, %76
  %245 = phi ptr [ %77, %76 ], [ %243, %242 ]
  br label %246

246:                                              ; preds = %244, %70
  %247 = phi ptr [ %71, %70 ], [ %245, %244 ]
  br label %248

248:                                              ; preds = %246, %64
  %249 = phi ptr [ %65, %64 ], [ %247, %246 ]
  br label %250

250:                                              ; preds = %248, %58
  %251 = phi ptr [ %59, %58 ], [ %249, %248 ]
  br label %252

252:                                              ; preds = %250, %52
  %253 = phi ptr [ %53, %52 ], [ %251, %250 ]
  br label %254

254:                                              ; preds = %252, %46
  %255 = phi ptr [ %47, %46 ], [ %253, %252 ]
  br label %256

256:                                              ; preds = %254, %40
  %257 = phi ptr [ %41, %40 ], [ %255, %254 ]
  br label %258

258:                                              ; preds = %256, %34
  %259 = phi ptr [ %35, %34 ], [ %257, %256 ]
  br label %260

260:                                              ; preds = %258, %28
  %261 = phi ptr [ %29, %28 ], [ %259, %258 ]
  br label %262

262:                                              ; preds = %260, %22
  %263 = phi ptr [ %23, %22 ], [ %261, %260 ]
  br label %264

264:                                              ; preds = %262, %16
  %265 = phi ptr [ %17, %16 ], [ %263, %262 ]
  br label %270

266:                                              ; preds = %1
  %267 = load i64, ptr getelementptr inbounds nuw (%struct._cwd_state, ptr @cwd_globals, i32 0, i32 1), align 8, !tbaa !16
  %268 = add i64 %267, 1
  %269 = call noalias ptr @_emalloc(i64 noundef %268) #18
  br label %270

270:                                              ; preds = %266, %264
  %271 = phi ptr [ %265, %264 ], [ %269, %266 ]
  %272 = getelementptr inbounds nuw %struct._cwd_state, ptr %4, i32 0, i32 0
  store ptr %271, ptr %272, align 8, !tbaa !7
  %273 = getelementptr inbounds nuw %struct._cwd_state, ptr %4, i32 0, i32 0
  %274 = load ptr, ptr %273, align 8, !tbaa !7
  %275 = load ptr, ptr @cwd_globals, align 8, !tbaa !18
  %276 = load i64, ptr getelementptr inbounds nuw (%struct._cwd_state, ptr @cwd_globals, i32 0, i32 1), align 8, !tbaa !16
  %277 = add i64 %276, 1
  call void @llvm.memcpy.p0.p0.i64(ptr align 1 %274, ptr align 1 %275, i64 %277, i1 false)
  %278 = load ptr, ptr %3, align 8, !tbaa !12
  %279 = call i32 @virtual_file_ex(ptr noundef %4, ptr noundef %278, ptr noundef null, i32 noundef 0)
  %280 = icmp ne i32 %279, 0
  br i1 %280, label %281, label %285

281:                                              ; preds = %270
  %282 = getelementptr inbounds nuw %struct._cwd_state, ptr %4, i32 0, i32 0
  %283 = load ptr, ptr %282, align 8, !tbaa !7
  call void @_efree(ptr noundef %283)
  %284 = getelementptr inbounds nuw %struct._cwd_state, ptr %4, i32 0, i32 1
  store i64 0, ptr %284, align 8, !tbaa !13
  store i32 -1, ptr %2, align 4
  store i32 1, ptr %6, align 4
  br label %293

285:                                              ; preds = %270
  %286 = getelementptr inbounds nuw %struct._cwd_state, ptr %4, i32 0, i32 0
  %287 = load ptr, ptr %286, align 8, !tbaa !7
  %288 = call i32 @rmdir(ptr noundef %287) #16
  store i32 %288, ptr %5, align 4, !tbaa !27
  %289 = getelementptr inbounds nuw %struct._cwd_state, ptr %4, i32 0, i32 0
  %290 = load ptr, ptr %289, align 8, !tbaa !7
  call void @_efree(ptr noundef %290)
  %291 = getelementptr inbounds nuw %struct._cwd_state, ptr %4, i32 0, i32 1
  store i64 0, ptr %291, align 8, !tbaa !13
  %292 = load i32, ptr %5, align 4, !tbaa !27
  store i32 %292, ptr %2, align 4
  store i32 1, ptr %6, align 4
  br label %293

293:                                              ; preds = %285, %281
  call void @llvm.lifetime.end.p0(i64 4, ptr %5) #16
  call void @llvm.lifetime.end.p0(i64 16, ptr %4) #16
  %294 = load i32, ptr %2, align 4
  ret i32 %294
}